; Function Attrs: mustprogress nofree norecurse nosync nounwind willreturn memory(argmem: readwrite) uwtable
define void @_ZN3gmx11LoggerOwnerC2EOS0_(ptr nocapture noundef nonnull align 8 dereferenceable(16) %0, ptr nocapture noundef nonnull align 8 dereferenceable(16) %1) unnamed_addr #3 align 2 {
  %3 = load i64, ptr %1, align 8
  store i64 %3, ptr %0, align 8
  store ptr null, ptr %1, align 8
  %4 = getelementptr inbounds i8, ptr %0, i64 8
  %5 = load ptr, ptr %0, align 8
  store ptr %5, ptr %4, align 8
  ret void
}